target datalayout = "e-m:e-p270:32:32-p271:32:32-p272:64:64-i64:64-i128:128-f80:128-n8:16:32:64-S128"
target triple = "x86_64-pc-linux-gnu"

@.str.3 = private unnamed_addr constant [2 x i8] c"\0A\00", align 1
@.str.4 = private unnamed_addr constant [51 x i8] c"    chformal [types] [mode] [options] [selection]\0A\00", align 1
@.str.5 = private unnamed_addr constant [75 x i8] c"Make changes to the formal constraints of the design. The [types] options\0A\00", align 1
@.str.6 = private unnamed_addr constant [76 x i8] c"the type of constraint to operate on. If none of the following options are\0A\00", align 1
@.str.7 = private unnamed_addr constant [58 x i8] c"given, the command will operate on all constraint types:\0A\00", align 1
@.str.8 = private unnamed_addr constant [71 x i8] c"    -assert       $assert cells, representing assert(...) constraints\0A\00", align 1
@.str.9 = private unnamed_addr constant [71 x i8] c"    -assume       $assume cells, representing assume(...) constraints\0A\00", align 1
@.str.10 = private unnamed_addr constant [70 x i8] c"    -live         $live cells, representing assert(s_eventually ...)\0A\00", align 1
@.str.11 = private unnamed_addr constant [70 x i8] c"    -fair         $fair cells, representing assume(s_eventually ...)\0A\00", align 1
@.str.12 = private unnamed_addr constant [65 x i8] c"    -cover        $cover cells, representing cover() statements\0A\00", align 1
@.str.13 = private unnamed_addr constant [77 x i8] c"    Additionally chformal will operate on $check cells corresponding to the\0A\00", align 1
@.str.14 = private unnamed_addr constant [32 x i8] c"    selected constraint types.\0A\00", align 1
@.str.15 = private unnamed_addr constant [55 x i8] c"Exactly one of the following modes must be specified:\0A\00", align 1
@.str.16 = private unnamed_addr constant [13 x i8] c"    -remove\0A\00", align 1
@.str.17 = private unnamed_addr constant [63 x i8] c"        remove the cells and thus constraints from the design\0A\00", align 1
@.str.18 = private unnamed_addr constant [12 x i8] c"    -early\0A\00", align 1
@.str.19 = private unnamed_addr constant [80 x i8] c"        bypass FFs that only delay the activation of a constraint. When inputs\0A\00", align 1
@.str.20 = private unnamed_addr constant [80 x i8] c"        of the bypassed FFs do not remain stable between clock edges, this may\0A\00", align 1
@.str.21 = private unnamed_addr constant [40 x i8] c"        result in unexpected behavior.\0A\00", align 1
@.str.22 = private unnamed_addr constant [16 x i8] c"    -delay <N>\0A\00", align 1
@.str.23 = private unnamed_addr constant [64 x i8] c"        delay activation of the constraint by <N> clock cycles\0A\00", align 1
@.str.24 = private unnamed_addr constant [15 x i8] c"    -skip <N>\0A\00", align 1
@.str.25 = private unnamed_addr constant [75 x i8] c"        ignore activation of the constraint in the first <N> clock cycles\0A\00", align 1
@.str.26 = private unnamed_addr constant [18 x i8] c"    -coverenable\0A\00", align 1
@.str.27 = private unnamed_addr constant [72 x i8] c"        add cover statements for the enable signals of the constraints\0A\00", align 1
@.str.28 = private unnamed_addr constant [20 x i8] c"    -assert2assume\0A\00", align 1
@.str.29 = private unnamed_addr constant [20 x i8] c"    -assume2assert\0A\00", align 1
@.str.30 = private unnamed_addr constant [16 x i8] c"    -live2fair\0A\00", align 1
@.str.31 = private unnamed_addr constant [16 x i8] c"    -fair2live\0A\00", align 1
@.str.32 = private unnamed_addr constant [79 x i8] c"        change the roles of cells as indicated. these options can be combined\0A\00", align 1
@.str.33 = private unnamed_addr constant [12 x i8] c"    -lower\0A\00", align 1
@.str.34 = private unnamed_addr constant [76 x i8] c"        convert each $check cell into an $assert, $assume, $live, $fair or\0A\00", align 1
@.str.35 = private unnamed_addr constant [76 x i8] c"        $cover cell. If the $check cell contains a message, also produce a\0A\00", align 1
@.str.36 = private unnamed_addr constant [22 x i8] c"        $print cell.\0A\00", align 1

; Function Attrs: mustprogress uwtable
define internal void @_ZN12_GLOBAL__N_112ChformalPass4helpEv(ptr noundef nonnull align 8 dereferenceable(104) %0) unnamed_addr #4 align 2 {
  %2 = alloca ptr, align 8
  store ptr %0, ptr %2, align 8
  call void (ptr, ...) @_ZN5Yosys3logEPKcz(ptr noundef @.str.3)
  call void (ptr, ...) @_ZN5Yosys3logEPKcz(ptr noundef @.str.4)
  call void (ptr, ...) @_ZN5Yosys3logEPKcz(ptr noundef @.str.3)
  call void (ptr, ...) @_ZN5Yosys3logEPKcz(ptr noundef @.str.5)
  call void (ptr, ...) @_ZN5Yosys3logEPKcz(ptr noundef @.str.6)
  call void (ptr, ...) @_ZN5Yosys3logEPKcz(ptr noundef @.str.7)
  call void (ptr, ...) @_ZN5Yosys3logEPKcz(ptr noundef @.str.3)
  call void (ptr, ...) @_ZN5Yosys3logEPKcz(ptr noundef @.str.8)
  call void (ptr, ...) @_ZN5Yosys3logEPKcz(ptr noundef @.str.9)
  call void (ptr, ...) @_ZN5Yosys3logEPKcz(ptr noundef @.str.10)
  call void (ptr, ...) @_ZN5Yosys3logEPKcz(ptr noundef @.str.11)
  call void (ptr, ...) @_ZN5Yosys3logEPKcz(ptr noundef @.str.12)
  call void (ptr, ...) @_ZN5Yosys3logEPKcz(ptr noundef @.str.3)
  call void (ptr, ...) @_ZN5Yosys3logEPKcz(ptr noundef @.str.13)
  call void (ptr, ...) @_ZN5Yosys3logEPKcz(ptr noundef @.str.14)
  call void (ptr, ...) @_ZN5Yosys3logEPKcz(ptr noundef @.str.3)
  call void (ptr, ...) @_ZN5Yosys3logEPKcz(ptr noundef @.str.15)
  call void (ptr, ...) @_ZN5Yosys3logEPKcz(ptr noundef @.str.3)
  call void (ptr, ...) @_ZN5Yosys3logEPKcz(ptr noundef @.str.16)
  call void (ptr, ...) @_ZN5Yosys3logEPKcz(ptr noundef @.str.17)
  call void (ptr, ...) @_ZN5Yosys3logEPKcz(ptr noundef @.str.3)
  call void (ptr, ...) @_ZN5Yosys3logEPKcz(ptr noundef @.str.18)
  call void (ptr, ...) @_ZN5Yosys3logEPKcz(ptr noundef @.str.19)
  call void (ptr, ...) @_ZN5Yosys3logEPKcz(ptr noundef @.str.20)
  call void (ptr, ...) @_ZN5Yosys3logEPKcz(ptr noundef @.str.21)
  call void (ptr, ...) @_ZN5Yosys3logEPKcz(ptr noundef @.str.3)
  call void (ptr, ...) @_ZN5Yosys3logEPKcz(ptr noundef @.str.22)
  call void (ptr, ...) @_ZN5Yosys3logEPKcz(ptr noundef @.str.23)
  call void (ptr, ...) @_ZN5Yosys3logEPKcz(ptr noundef @.str.3)
  call void (ptr, ...) @_ZN5Yosys3logEPKcz(ptr noundef @.str.24)
  call void (ptr, ...) @_ZN5Yosys3logEPKcz(ptr noundef @.str.25)
  call void (ptr, ...) @_ZN5Yosys3logEPKcz(ptr noundef @.str.3)
  call void (ptr, ...) @_ZN5Yosys3logEPKcz(ptr noundef @.str.26)
  call void (ptr, ...) @_ZN5Yosys3logEPKcz(ptr noundef @.str.27)
  call void (ptr, ...) @_ZN5Yosys3logEPKcz(ptr noundef @.str.3)
  call void (ptr, ...) @_ZN5Yosys3logEPKcz(ptr noundef @.str.28)
  call void (ptr, ...) @_ZN5Yosys3logEPKcz(ptr noundef @.str.29)
  call void (ptr, ...) @_ZN5Yosys3logEPKcz(ptr noundef @.str.30)
  call void (ptr, ...) @_ZN5Yosys3logEPKcz(ptr noundef @.str.31)
  call void (ptr, ...) @_ZN5Yosys3logEPKcz(ptr noundef @.str.32)
  call void (ptr, ...) @_ZN5Yosys3logEPKcz(ptr noundef @.str.3)
  call void (ptr, ...) @_ZN5Yosys3logEPKcz(ptr noundef @.str.33)
  call void (ptr, ...) @_ZN5Yosys3logEPKcz(ptr noundef @.str.34)
  call void (ptr, ...) @_ZN5Yosys3logEPKcz(ptr noundef @.str.35)
  call void (ptr, ...) @_ZN5Yosys3logEPKcz(ptr noundef @.str.36)
  call void (ptr, ...) @_ZN5Yosys3logEPKcz(ptr noundef @.str.3)
  ret void
}